; Function Attrs: nounwind uwtable
define ptr @l_Array_forIn_x27Unsafe_loop___at_Lean_Meta_Grind_ppPattern___spec__9(ptr readnone captures(none) %0, ptr readnone captures(none) %1, ptr noundef readonly captures(none) %2, i64 noundef %3, i64 noundef %4, ptr noundef %5) local_unnamed_addr #1 {
  %.not35 = icmp ult i64 %4, %3
  br i1 %.not35, label %.lr.ph, label %._crit_edge

.lr.ph:                                           ; preds = %6
  %7 = getelementptr inbounds nuw i8, ptr %2, i64 24
  br label %8

8:                                                ; preds = %.lr.ph, %30
  %.02037 = phi i64 [ %4, %.lr.ph ], [ %34, %30 ]
  %.02236 = phi ptr [ %5, %.lr.ph ], [ %27, %30 ]
  %9 = getelementptr inbounds nuw [0 x ptr], ptr %7, i64 0, i64 %.02037
  %10 = load ptr, ptr %9, align 8, !tbaa !9
  %11 = ptrtoint ptr %10 to i64
  %12 = and i64 %11, 1
  %.not.i = icmp eq i64 %12, 0
  br i1 %.not.i, label %13, label %lean_array_uget.exit

13:                                               ; preds = %8
  %.val.i.i = load i32, ptr %10, align 4, !tbaa !4
  %14 = icmp sgt i32 %.val.i.i, 0
  br i1 %14, label %15, label %17, !prof !11

15:                                               ; preds = %13
  %16 = add nuw i32 %.val.i.i, 1
  store i32 %16, ptr %10, align 4, !tbaa !4
  br label %lean_array_uget.exit

17:                                               ; preds = %13
  %.not.i.i = icmp eq i32 %.val.i.i, 0
  br i1 %.not.i.i, label %lean_array_uget.exit, label %18

18:                                               ; preds = %17
  tail call void @lean_inc_ref_cold(ptr noundef nonnull %10) #9
  br label %lean_array_uget.exit

lean_array_uget.exit:                             ; preds = %8, %15, %17, %18
  %19 = load ptr, ptr @l_Array_forIn_x27Unsafe_loop___at_Lean_Meta_Grind_ppPattern___spec__1___closed__3, align 8, !tbaa !9
  tail call void @lean_inc_heartbeat() #9
  %20 = tail call noalias ptr @mi_malloc_small(i64 noundef 24) #9
  %21 = icmp eq ptr %20, null
  br i1 %21, label %22, label %lean_alloc_ctor.exit

22:                                               ; preds = %lean_array_uget.exit
  tail call void @lean_internal_panic_out_of_memory() #10
  unreachable

lean_alloc_ctor.exit:                             ; preds = %lean_array_uget.exit
  %23 = getelementptr inbounds nuw i8, ptr %20, i64 4
  store i32 1, ptr %20, align 4, !tbaa !4
  store i32 117571608, ptr %23, align 4
  %24 = getelementptr inbounds nuw i8, ptr %20, i64 8
  store ptr %.02236, ptr %24, align 8, !tbaa !9
  %25 = getelementptr inbounds nuw i8, ptr %20, i64 16
  store ptr %19, ptr %25, align 8, !tbaa !9
  %26 = tail call ptr @l_Lean_Meta_Grind_ppPattern_ppArg(ptr noundef %10)
  tail call void @lean_inc_heartbeat() #9
  %27 = tail call noalias ptr @mi_malloc_small(i64 noundef 24) #9
  %28 = icmp eq ptr %27, null
  br i1 %28, label %29, label %30

29:                                               ; preds = %lean_alloc_ctor.exit
  tail call void @lean_internal_panic_out_of_memory() #10
  unreachable

30:                                               ; preds = %lean_alloc_ctor.exit
  %31 = getelementptr inbounds nuw i8, ptr %27, i64 4
  store i32 1, ptr %27, align 4, !tbaa !4
  store i32 117571608, ptr %31, align 4
  %32 = getelementptr inbounds nuw i8, ptr %27, i64 8
  store ptr %20, ptr %32, align 8, !tbaa !9
  %33 = getelementptr inbounds nuw i8, ptr %27, i64 16
  store ptr %26, ptr %33, align 8, !tbaa !9
  %34 = add nuw i64 %.02037, 1
  %exitcond.not = icmp eq i64 %34, %3
  br i1 %exitcond.not, label %._crit_edge, label %8

._crit_edge:                                      ; preds = %30, %6
  %.022.lcssa = phi ptr [ %5, %6 ], [ %27, %30 ]
  ret ptr %.022.lcssa
}